; Function Attrs: nounwind uwtable
define i32 @wolfSSL_DeriveTlsKeys(ptr noundef %0, i32 noundef %1, ptr noundef %2, i32 noundef %3, ptr noundef readonly captures(none) %4, ptr noundef readonly captures(none) %5, i32 noundef %6, i32 noundef %7) local_unnamed_addr #0 {
  %9 = alloca [64 x i8], align 16
  call void @llvm.lifetime.start.p0(i64 64, ptr nonnull %9) #17
  call void @llvm.memcpy.p0.p0.i64(ptr noundef nonnull align 16 dereferenceable(32) %9, ptr noundef nonnull readonly align 1 dereferenceable(32) %4, i64 32, i1 false)
  %10 = getelementptr inbounds nuw i8, ptr %9, i64 32
  call void @llvm.memcpy.p0.p0.i64(ptr noundef nonnull align 16 dereferenceable(32) %10, ptr noundef nonnull readonly align 1 dereferenceable(32) %5, i64 32, i1 false)
  %11 = call i32 @wc_PRF_TLS(ptr noundef %0, i32 noundef %1, ptr noundef %2, i32 noundef %3, ptr noundef nonnull @key_label, i32 noundef 13, ptr noundef nonnull %9, i32 noundef 64, i32 noundef %6, i32 noundef %7, ptr noundef null, i32 noundef -2) #17
  call void @llvm.lifetime.end.p0(i64 64, ptr nonnull %9) #17
  ret i32 %11
}